; Function Attrs: mustprogress uwtable
define internal noundef ptr @"_ZZN4pkpy6Struct9_registerEPNS_2VMEPNS_8PyObjectES4_EN4$_128__invokeES2_NS_8ArgsViewE"(ptr noundef nonnull %0, ptr nocapture readonly %1, ptr nocapture readnone %2) #3 align 2 {
  %4 = alloca i64, align 8
  %5 = load ptr, ptr %1, align 8
  %6 = tail call i16 @_ZN4pkpy2VM28_find_type_in_cxx_typeid_mapINS_6StructEEENS_4TypeEv(ptr noundef nonnull align 8 dereferenceable(264913) %0)
  %7 = getelementptr inbounds i8, ptr %1, i64 8
  %8 = load ptr, ptr %7, align 8
  %9 = tail call noundef i64 @_ZN4pkpy18_py_cast__internalIlLb1EEET_PNS_2VMEPNS_8PyObjectE(ptr noundef nonnull %0, ptr noundef %8)
  %10 = getelementptr inbounds i8, ptr %5, i64 48
  %11 = load ptr, ptr %10, align 8
  %12 = getelementptr inbounds i8, ptr %11, i64 %9
  call void @llvm.lifetime.start.p0(i64 8, ptr nonnull %4)
  %13 = load i16, ptr %12, align 2
  %14 = sext i16 %13 to i64
  store i64 %14, ptr %4, align 8
  %15 = icmp sgt i16 %13, -1
  br i1 %15, label %16, label %20

16:                                               ; preds = %3
  %17 = shl nuw nsw i64 %14, 2
  %18 = or disjoint i64 %17, 2
  %19 = inttoptr i64 %18 to ptr
  br label %"_ZZN4pkpy6Struct9_registerEPNS_2VMEPNS_8PyObjectES4_ENK4$_12clES2_NS_8ArgsViewE.exit"

20:                                               ; preds = %3
  %21 = getelementptr inbounds i8, ptr %0, i64 16
  %22 = call noundef ptr @_ZN4pkpy11ManagedHeap5gcnewIlJRlEEEPNS_8PyObjectENS_4TypeEDpOT0_(ptr noundef nonnull align 8 dereferenceable(84) %21, i16 2, ptr noundef nonnull align 8 dereferenceable(8) %4)
  br label %"_ZZN4pkpy6Struct9_registerEPNS_2VMEPNS_8PyObjectES4_ENK4$_12clES2_NS_8ArgsViewE.exit"

"_ZZN4pkpy6Struct9_registerEPNS_2VMEPNS_8PyObjectES4_ENK4$_12clES2_NS_8ArgsViewE.exit": ; preds = %16, %20
  %.0.i.i = phi ptr [ %19, %16 ], [ %22, %20 ]
  call void @llvm.lifetime.end.p0(i64 8, ptr nonnull %4)
  ret ptr %.0.i.i
}